; Function Attrs: nounwind uwtable
define ptr @Aig_ManDupWithoutPos(ptr noundef %0) local_unnamed_addr #0 {
  %2 = getelementptr i8, ptr %0, i64 32
  %.val31 = load ptr, ptr %2, align 8, !tbaa !3
  %3 = getelementptr i8, ptr %.val31, i64 4
  %.val31.val = load i32, ptr %3, align 4, !tbaa !21
  %4 = tail call ptr @Aig_ManStart(i32 noundef %.val31.val) #11
  %5 = load ptr, ptr %0, align 8, !tbaa !23
  %.not.i = icmp eq ptr %5, null
  br i1 %.not.i, label %Abc_UtilStrsav.exit, label %6

6:                                                ; preds = %1
  %7 = tail call i64 @strlen(ptr noundef nonnull readonly dereferenceable(1) %5) #12
  %8 = add i64 %7, 1
  %9 = tail call noalias ptr @malloc(i64 noundef %8) #13
  %10 = tail call ptr @strcpy(ptr noundef nonnull dereferenceable(1) %9, ptr noundef nonnull readonly dereferenceable(1) %5) #11
  br label %Abc_UtilStrsav.exit

Abc_UtilStrsav.exit:                              ; preds = %1, %6
  %11 = phi ptr [ %9, %6 ], [ null, %1 ]
  store ptr %11, ptr %4, align 8, !tbaa !23
  %12 = getelementptr inbounds nuw i8, ptr %0, i64 8
  %13 = load ptr, ptr %12, align 8, !tbaa !24
  %.not.i40 = icmp eq ptr %13, null
  br i1 %.not.i40, label %Abc_UtilStrsav.exit41, label %14

14:                                               ; preds = %Abc_UtilStrsav.exit
  %15 = tail call i64 @strlen(ptr noundef nonnull readonly dereferenceable(1) %13) #12
  %16 = add i64 %15, 1
  %17 = tail call noalias ptr @malloc(i64 noundef %16) #13
  %18 = tail call ptr @strcpy(ptr noundef nonnull dereferenceable(1) %17, ptr noundef nonnull readonly dereferenceable(1) %13) #11
  br label %Abc_UtilStrsav.exit41

Abc_UtilStrsav.exit41:                            ; preds = %Abc_UtilStrsav.exit, %14
  %19 = phi ptr [ %17, %14 ], [ null, %Abc_UtilStrsav.exit ]
  %20 = getelementptr inbounds nuw i8, ptr %4, i64 8
  store ptr %19, ptr %20, align 8, !tbaa !24
  tail call void @Aig_ManCleanData(ptr noundef nonnull %0) #11
  %21 = getelementptr i8, ptr %4, i64 48
  %.val33 = load ptr, ptr %21, align 8, !tbaa !33
  %22 = getelementptr i8, ptr %0, i64 48
  %.val32 = load ptr, ptr %22, align 8, !tbaa !33
  %23 = getelementptr inbounds nuw i8, ptr %.val32, i64 40
  store ptr %.val33, ptr %23, align 8, !tbaa !34
  %24 = getelementptr inbounds nuw i8, ptr %0, i64 16
  %25 = load ptr, ptr %24, align 8, !tbaa !35
  %26 = getelementptr i8, ptr %25, i64 4
  %.val3044 = load i32, ptr %26, align 4, !tbaa !21
  %27 = icmp sgt i32 %.val3044, 0
  br i1 %27, label %.lr.ph, label %.critedge.preheader

.critedge.preheader:                              ; preds = %.lr.ph, %Abc_UtilStrsav.exit41
  %28 = load ptr, ptr %2, align 8, !tbaa !3
  %29 = getelementptr i8, ptr %28, i64 4
  %.val46 = load i32, ptr %29, align 4, !tbaa !21
  %30 = icmp sgt i32 %.val46, 0
  br i1 %30, label %.lr.ph48, label %.critedge2

.lr.ph:                                           ; preds = %Abc_UtilStrsav.exit41, %.lr.ph
  %indvars.iv = phi i64 [ %indvars.iv.next, %.lr.ph ], [ 0, %Abc_UtilStrsav.exit41 ]
  %31 = phi ptr [ %37, %.lr.ph ], [ %25, %Abc_UtilStrsav.exit41 ]
  %32 = getelementptr i8, ptr %31, i64 8
  %.val35 = load ptr, ptr %32, align 8, !tbaa !36
  %33 = getelementptr inbounds nuw ptr, ptr %.val35, i64 %indvars.iv
  %34 = load ptr, ptr %33, align 8, !tbaa !37
  %35 = tail call ptr @Aig_ObjCreateCi(ptr noundef nonnull %4) #11
  %36 = getelementptr inbounds nuw i8, ptr %34, i64 40
  store ptr %35, ptr %36, align 8, !tbaa !34
  %indvars.iv.next = add nuw nsw i64 %indvars.iv, 1
  %37 = load ptr, ptr %24, align 8, !tbaa !35
  %38 = getelementptr i8, ptr %37, i64 4
  %.val30 = load i32, ptr %38, align 4, !tbaa !21
  %39 = sext i32 %.val30 to i64
  %40 = icmp slt i64 %indvars.iv.next, %39
  br i1 %40, label %.lr.ph, label %.critedge.preheader, !llvm.loop !80

.lr.ph48:                                         ; preds = %.critedge.preheader, %.critedge
  %41 = phi ptr [ %78, %.critedge ], [ %28, %.critedge.preheader ]
  %indvars.iv50 = phi i64 [ %indvars.iv.next51, %.critedge ], [ 0, %.critedge.preheader ]
  %42 = getelementptr i8, ptr %41, i64 8
  %.val34 = load ptr, ptr %42, align 8, !tbaa !36
  %43 = getelementptr inbounds nuw ptr, ptr %.val34, i64 %indvars.iv50
  %44 = load ptr, ptr %43, align 8, !tbaa !37
  %45 = icmp eq ptr %44, null
  br i1 %45, label %.critedge, label %46

46:                                               ; preds = %.lr.ph48
  %47 = getelementptr i8, ptr %44, i64 24
  %.val37 = load i64, ptr %47, align 8
  %48 = trunc i64 %.val37 to i32
  %49 = and i32 %48, 7
  %50 = add nsw i32 %49, -7
  %narrow.i = icmp ult i32 %50, -2
  br i1 %narrow.i, label %.critedge, label %51

51:                                               ; preds = %46
  %52 = getelementptr i8, ptr %44, i64 8
  %.val36 = load ptr, ptr %52, align 8, !tbaa !41
  %53 = ptrtoint ptr %.val36 to i64
  %54 = and i64 %53, -2
  %.not.i42 = icmp eq i64 %54, 0
  br i1 %.not.i42, label %Aig_ObjChild0Copy.exit, label %55

55:                                               ; preds = %51
  %56 = inttoptr i64 %54 to ptr
  %57 = getelementptr inbounds nuw i8, ptr %56, i64 40
  %58 = load ptr, ptr %57, align 8, !tbaa !34
  %59 = and i64 %53, 1
  %60 = ptrtoint ptr %58 to i64
  %61 = xor i64 %59, %60
  %62 = inttoptr i64 %61 to ptr
  br label %Aig_ObjChild0Copy.exit

Aig_ObjChild0Copy.exit:                           ; preds = %51, %55
  %63 = phi ptr [ %62, %55 ], [ null, %51 ]
  %64 = getelementptr i8, ptr %44, i64 16
  %.val38 = load ptr, ptr %64, align 8, !tbaa !42
  %65 = ptrtoint ptr %.val38 to i64
  %66 = and i64 %65, -2
  %.not.i43 = icmp eq i64 %66, 0
  br i1 %.not.i43, label %Aig_ObjChild1Copy.exit, label %67

67:                                               ; preds = %Aig_ObjChild0Copy.exit
  %68 = inttoptr i64 %66 to ptr
  %69 = getelementptr inbounds nuw i8, ptr %68, i64 40
  %70 = load ptr, ptr %69, align 8, !tbaa !34
  %71 = and i64 %65, 1
  %72 = ptrtoint ptr %70 to i64
  %73 = xor i64 %71, %72
  %74 = inttoptr i64 %73 to ptr
  br label %Aig_ObjChild1Copy.exit

Aig_ObjChild1Copy.exit:                           ; preds = %Aig_ObjChild0Copy.exit, %67
  %75 = phi ptr [ %74, %67 ], [ null, %Aig_ObjChild0Copy.exit ]
  %76 = tail call ptr @Aig_Oper(ptr noundef nonnull %4, ptr noundef %63, ptr noundef %75, i32 noundef %49) #11
  %77 = getelementptr inbounds nuw i8, ptr %44, i64 40
  store ptr %76, ptr %77, align 8, !tbaa !34
  %.pre = load ptr, ptr %2, align 8, !tbaa !3
  br label %.critedge

.critedge:                                        ; preds = %.lr.ph48, %Aig_ObjChild1Copy.exit, %46
  %78 = phi ptr [ %41, %.lr.ph48 ], [ %.pre, %Aig_ObjChild1Copy.exit ], [ %41, %46 ]
  %indvars.iv.next51 = add nuw nsw i64 %indvars.iv50, 1
  %79 = getelementptr i8, ptr %78, i64 4
  %.val = load i32, ptr %79, align 4, !tbaa !21
  %80 = sext i32 %.val to i64
  %81 = icmp slt i64 %indvars.iv.next51, %80
  br i1 %81, label %.lr.ph48, label %.critedge2, !llvm.loop !81

.critedge2:                                       ; preds = %.critedge, %.critedge.preheader
  ret ptr %4
}